target datalayout = "e-m:e-p270:32:32-p271:32:32-p272:64:64-i64:64-i128:128-f80:128-n8:16:32:64-S128"
target triple = "x86_64-pc-linux-gnu"

@proto_register_abis_om2000.ett = internal global [5 x ptr] [ptr @ett_om2000, ptr @ett_om2k_mo, ptr @ett_om2k_isl, ptr @ett_om2k_conl, ptr @ett_om2k_iwd], align 16
@.str.193 = private unnamed_addr constant [19 x i8] c"Ericsson A-bis OML\00", align 1
@.str.194 = private unnamed_addr constant [13 x i8] c"Ericsson OML\00", align 1
@.str.195 = private unnamed_addr constant [16 x i8] c"gsm_abis_om2000\00", align 1
@proto_abis_om2000 = internal global i32 0, align 4

; Function Attrs: null_pointer_is_valid sspstrong uwtable
define hidden void @proto_register_abis_om2000() #0 {
  %1 = alloca ptr, align 8
  call void @llvm.lifetime.start.p0(i64 8, ptr %1) #5
  %2 = call i32 @proto_register_protocol(ptr noundef @.str.193, ptr noundef @.str.194, ptr noundef @.str.195)
  store i32 %2, ptr @proto_abis_om2000, align 4
  %3 = load i32, ptr @proto_abis_om2000, align 4
  %4 = call ptr @expert_register_protocol(i32 noundef %3)
  store ptr %4, ptr %1, align 8
  %5 = load ptr, ptr %1, align 8
  call void @expert_register_field_array(ptr noundef %5, ptr noundef @proto_register_abis_om2000.ei, i32 noundef 4)
  %6 = load i32, ptr @proto_abis_om2000, align 4
  call void @proto_register_field_array(i32 noundef %6, ptr noundef @proto_register_abis_om2000.hf, i32 noundef 88)
  call void @proto_register_subtree_array(ptr noundef @proto_register_abis_om2000.ett, i32 noundef 5)
  %7 = load i32, ptr @proto_abis_om2000, align 4
  %8 = call ptr @register_dissector(ptr noundef @.str.195, ptr noundef @dissect_abis_om2000, i32 noundef %7)
  call void @llvm.lifetime.end.p0(i64 8, ptr %1) #5
  ret void
}