; Function Attrs: null_pointer_is_valid sspstrong uwtable
define hidden void @proto_register_abis_om2000() local_unnamed_addr #0 {
  %1 = tail call i32 @proto_register_protocol(ptr noundef nonnull @.str.193, ptr noundef nonnull @.str.194, ptr noundef nonnull @.str.195)
  store i32 %1, ptr @proto_abis_om2000, align 4
  %2 = tail call ptr @expert_register_protocol(i32 noundef %1)
  tail call void @expert_register_field_array(ptr noundef %2, ptr noundef nonnull @proto_register_abis_om2000.ei, i32 noundef 4)
  %3 = load i32, ptr @proto_abis_om2000, align 4
  tail call void @proto_register_field_array(i32 noundef %3, ptr noundef nonnull @proto_register_abis_om2000.hf, i32 noundef 88)
  tail call void @proto_register_subtree_array(ptr noundef nonnull @proto_register_abis_om2000.ett, i32 noundef 5)
  %4 = load i32, ptr @proto_abis_om2000, align 4
  %5 = tail call ptr @register_dissector(ptr noundef nonnull @.str.195, ptr noundef nonnull @dissect_abis_om2000, i32 noundef %4)
  ret void
}